target datalayout = "e-m:e-p270:32:32-p271:32:32-p272:64:64-i64:64-i128:128-f80:128-n8:16:32:64-S128"
target triple = "x86_64-unknown-linux-gnu"

%"struct.cineon::GenericHeader" = type { i32, i32, i32, i32, i32, i32, [8 x i8], [100 x i8], [12 x i8], [12 x i8], [36 x i8], i8, i8, [2 x i8], [8 x %"struct.cineon::ImageElement"], [2 x float], [2 x float], [2 x float], [2 x float], [200 x i8], [28 x i8], i8, i8, i8, i8, i32, i32, [20 x i8], i32, i32, [100 x i8], [12 x i8], [12 x i8], [64 x i8], [32 x i8], [32 x i8], float, float, float, [40 x i8] }
%"struct.cineon::ImageElement" = type { [2 x i8], i8, i8, i32, i32, float, float, float, float }

; Function Attrs: mustprogress nounwind uwtable
define linkonce_odr hidden noundef i32 @_ZNK6cineon13GenericHeader13PixelsPerLineEi(ptr noundef nonnull align 4 dereferenceable(1024) %this, i32 noundef %i) #1 comdat align 2 {
entry:
  %retval = alloca i32, align 4
  %this.addr = alloca ptr, align 8
  %i.addr = alloca i32, align 4
  store ptr %this, ptr %this.addr, align 8
  store i32 %i, ptr %i.addr, align 4
  %this1 = load ptr, ptr %this.addr, align 8
  %0 = load i32, ptr %i.addr, align 4
  %cmp = icmp slt i32 %0, 0
  br i1 %cmp, label %if.then, label %lor.lhs.false

lor.lhs.false:                                    ; preds = %entry
  %1 = load i32, ptr %i.addr, align 4
  %cmp2 = icmp sge i32 %1, 8
  br i1 %cmp2, label %if.then, label %if.end

if.then:                                          ; preds = %lor.lhs.false, %entry
  store i32 -1, ptr %retval, align 4
  br label %return

if.end:                                           ; preds = %lor.lhs.false
  %chan = getelementptr inbounds %"struct.cineon::GenericHeader", ptr %this1, i32 0, i32 14
  %2 = load i32, ptr %i.addr, align 4
  %idxprom = sext i32 %2 to i64
  %arrayidx = getelementptr inbounds [8 x %"struct.cineon::ImageElement"], ptr %chan, i64 0, i64 %idxprom
  %pixelsPerLine = getelementptr inbounds %"struct.cineon::ImageElement", ptr %arrayidx, i32 0, i32 3
  %3 = load i32, ptr %pixelsPerLine, align 4
  store i32 %3, ptr %retval, align 4
  br label %return

return:                                           ; preds = %if.end, %if.then
  %4 = load i32, ptr %retval, align 4
  ret i32 %4
}

; Function Attrs: mustprogress nounwind uwtable
define linkonce_odr hidden noundef i32 @_ZNK6cineon13GenericHeader15LinesPerElementEi(ptr noundef nonnull align 4 dereferenceable(1024) %this, i32 noundef %i) #1 comdat align 2 {
entry:
  %retval = alloca i32, align 4
  %this.addr = alloca ptr, align 8
  %i.addr = alloca i32, align 4
  store ptr %this, ptr %this.addr, align 8
  store i32 %i, ptr %i.addr, align 4
  %this1 = load ptr, ptr %this.addr, align 8
  %0 = load i32, ptr %i.addr, align 4
  %cmp = icmp slt i32 %0, 0
  br i1 %cmp, label %if.then, label %lor.lhs.false

lor.lhs.false:                                    ; preds = %entry
  %1 = load i32, ptr %i.addr, align 4
  %cmp2 = icmp sge i32 %1, 8
  br i1 %cmp2, label %if.then, label %if.end

if.then:                                          ; preds = %lor.lhs.false, %entry
  store i32 -1, ptr %retval, align 4
  br label %return

if.end:                                           ; preds = %lor.lhs.false
  %chan = getelementptr inbounds %"struct.cineon::GenericHeader", ptr %this1, i32 0, i32 14
  %2 = load i32, ptr %i.addr, align 4
  %idxprom = sext i32 %2 to i64
  %arrayidx = getelementptr inbounds [8 x %"struct.cineon::ImageElement"], ptr %chan, i64 0, i64 %idxprom
  %linesPerElement = getelementptr inbounds %"struct.cineon::ImageElement", ptr %arrayidx, i32 0, i32 4
  %3 = load i32, ptr %linesPerElement, align 4
  store i32 %3, ptr %retval, align 4
  br label %return

return:                                           ; preds = %if.end, %if.then
  %4 = load i32, ptr %retval, align 4
  ret i32 %4
}

; Function Attrs: mustprogress nounwind uwtable
define linkonce_odr hidden noundef i32 @_ZNK6cineon13GenericHeader16ImageOrientationEv(ptr noundef nonnull align 4 dereferenceable(1024) %this) #1 comdat align 2 {
entry:
  %this.addr = alloca ptr, align 8
  store ptr %this, ptr %this.addr, align 8
  %this1 = load ptr, ptr %this.addr, align 8
  %imageOrientation = getelementptr inbounds %"struct.cineon::GenericHeader", ptr %this1, i32 0, i32 11
  %0 = load i8, ptr %imageOrientation, align 4
  %conv = zext i8 %0 to i32
  ret i32 %conv
}

; Function Attrs: mustprogress nounwind uwtable
define linkonce_odr hidden noundef zeroext i8 @_ZNK6cineon13GenericHeader16NumberOfElementsEv(ptr noundef nonnull align 4 dereferenceable(1024) %this) #1 comdat align 2 {
entry:
  %this.addr = alloca ptr, align 8
  store ptr %this, ptr %this.addr, align 8
  %this1 = load ptr, ptr %this.addr, align 8
  %numberOfElements = getelementptr inbounds %"struct.cineon::GenericHeader", ptr %this1, i32 0, i32 12
  %0 = load i8, ptr %numberOfElements, align 1
  ret i8 %0
}

; Function Attrs: mustprogress uwtable
define hidden noundef i32 @_ZNK6cineon6Header5WidthEv(ptr noundef nonnull align 4 dereferenceable(2048) %this) #6 align 2 {
entry:
  %this.addr = alloca ptr, align 8
  %w = alloca i32, align 4
  %i = alloca i32, align 4
  store ptr %this, ptr %this.addr, align 8
  %this1 = load ptr, ptr %this.addr, align 8
  store i32 0, ptr %w, align 4
  store i32 0, ptr %i, align 4
  br label %for.cond

for.cond:                                         ; preds = %for.inc, %entry
  %0 = load i32, ptr %i, align 4
  %call = call noundef zeroext i8 @_ZNK6cineon13GenericHeader16NumberOfElementsEv(ptr noundef nonnull align 4 dereferenceable(1024) %this1)
  %conv = zext i8 %call to i32
  %cmp = icmp slt i32 %0, %conv
  br i1 %cmp, label %for.body, label %for.end

for.body:                                         ; preds = %for.cond
  %call2 = call noundef i32 @_ZNK6cineon13GenericHeader16ImageOrientationEv(ptr noundef nonnull align 4 dereferenceable(1024) %this1)
  switch i32 %call2, label %sw.default [
    i32 4, label %sw.bb
    i32 5, label %sw.bb
    i32 6, label %sw.bb
    i32 7, label %sw.bb
  ]

sw.bb:                                            ; preds = %for.body, %for.body, %for.body, %for.body
  %1 = load i32, ptr %i, align 4
  %call3 = call noundef i32 @_ZNK6cineon13GenericHeader15LinesPerElementEi(ptr noundef nonnull align 4 dereferenceable(1024) %this1, i32 noundef %1)
  %2 = load i32, ptr %w, align 4
  %cmp4 = icmp ugt i32 %call3, %2
  br i1 %cmp4, label %if.then, label %if.end

if.then:                                          ; preds = %sw.bb
  %3 = load i32, ptr %i, align 4
  %call5 = call noundef i32 @_ZNK6cineon13GenericHeader15LinesPerElementEi(ptr noundef nonnull align 4 dereferenceable(1024) %this1, i32 noundef %3)
  store i32 %call5, ptr %w, align 4
  br label %if.end

if.end:                                           ; preds = %if.then, %sw.bb
  br label %sw.epilog

sw.default:                                       ; preds = %for.body
  %4 = load i32, ptr %i, align 4
  %call6 = call noundef i32 @_ZNK6cineon13GenericHeader13PixelsPerLineEi(ptr noundef nonnull align 4 dereferenceable(1024) %this1, i32 noundef %4)
  %5 = load i32, ptr %w, align 4
  %cmp7 = icmp ugt i32 %call6, %5
  br i1 %cmp7, label %if.then8, label %if.end10

if.then8:                                         ; preds = %sw.default
  %6 = load i32, ptr %i, align 4
  %call9 = call noundef i32 @_ZNK6cineon13GenericHeader13PixelsPerLineEi(ptr noundef nonnull align 4 dereferenceable(1024) %this1, i32 noundef %6)
  store i32 %call9, ptr %w, align 4
  br label %if.end10

if.end10:                                         ; preds = %if.then8, %sw.default
  br label %sw.epilog

sw.epilog:                                        ; preds = %if.end10, %if.end
  br label %for.inc

for.inc:                                          ; preds = %sw.epilog
  %7 = load i32, ptr %i, align 4
  %inc = add nsw i32 %7, 1
  store i32 %inc, ptr %i, align 4
  br label %for.cond, !llvm.loop !11

for.end:                                          ; preds = %for.cond
  %8 = load i32, ptr %w, align 4
  ret i32 %8
}