; Function Attrs: mustprogress nofree norecurse nosync nounwind willreturn memory(argmem: read) uwtable
define hidden noundef i32 @_ZNK6cineon6Header5WidthEv(ptr nocapture noundef nonnull readonly align 4 dereferenceable(2048) %this) local_unnamed_addr #10 align 2 {
entry:
  %numberOfElements.i = getelementptr inbounds i8, ptr %this, i64 193
  %0 = load i8, ptr %numberOfElements.i, align 1
  %cmp31.not = icmp eq i8 %0, 0
  br i1 %cmp31.not, label %for.end, label %for.body.lr.ph

for.body.lr.ph:                                   ; preds = %entry
  %imageOrientation.i = getelementptr inbounds i8, ptr %this, i64 192
  %1 = load i8, ptr %imageOrientation.i, align 4
  %2 = and i8 %1, -4
  %switch = icmp eq i8 %2, 4
  %chan.i17 = getelementptr inbounds i8, ptr %this, i64 196
  %wide.trip.count39 = zext i8 %0 to i64
  br i1 %switch, label %for.body.us, label %for.body

for.body.us:                                      ; preds = %for.body.lr.ph, %for.inc.us
  %indvars.iv36 = phi i64 [ %indvars.iv.next37, %for.inc.us ], [ 0, %for.body.lr.ph ]
  %w.032.us = phi i32 [ %w.1.us, %for.inc.us ], [ 0, %for.body.lr.ph ]
  %or.cond.i.us = icmp ugt i64 %indvars.iv36, 7
  br i1 %or.cond.i.us, label %for.inc.us, label %_ZNK6cineon13GenericHeader15LinesPerElementEi.exit.thread.us

_ZNK6cineon13GenericHeader15LinesPerElementEi.exit.thread.us: ; preds = %for.body.us
  %linesPerElement.i.us = getelementptr inbounds [8 x %"struct.cineon::ImageElement"], ptr %chan.i17, i64 0, i64 %indvars.iv36, i32 4
  %3 = load i32, ptr %linesPerElement.i.us, align 4
  %spec.select = tail call i32 @llvm.umax.i32(i32 %3, i32 %w.032.us)
  br label %for.inc.us

for.inc.us:                                       ; preds = %_ZNK6cineon13GenericHeader15LinesPerElementEi.exit.thread.us, %for.body.us
  %w.1.us = phi i32 [ -1, %for.body.us ], [ %spec.select, %_ZNK6cineon13GenericHeader15LinesPerElementEi.exit.thread.us ]
  %indvars.iv.next37 = add nuw nsw i64 %indvars.iv36, 1
  %exitcond40.not = icmp eq i64 %indvars.iv.next37, %wide.trip.count39
  br i1 %exitcond40.not, label %for.end, label %for.body.us, !llvm.loop !17

for.body:                                         ; preds = %for.body.lr.ph, %for.inc
  %indvars.iv = phi i64 [ %indvars.iv.next, %for.inc ], [ 0, %for.body.lr.ph ]
  %w.032 = phi i32 [ %w.1, %for.inc ], [ 0, %for.body.lr.ph ]
  %or.cond.i15 = icmp ugt i64 %indvars.iv, 7
  br i1 %or.cond.i15, label %for.inc, label %_ZNK6cineon13GenericHeader13PixelsPerLineEi.exit.thread

_ZNK6cineon13GenericHeader13PixelsPerLineEi.exit.thread: ; preds = %for.body
  %pixelsPerLine.i = getelementptr inbounds [8 x %"struct.cineon::ImageElement"], ptr %chan.i17, i64 0, i64 %indvars.iv, i32 3
  %4 = load i32, ptr %pixelsPerLine.i, align 4
  %spec.select42 = tail call i32 @llvm.umax.i32(i32 %4, i32 %w.032)
  br label %for.inc

for.inc:                                          ; preds = %_ZNK6cineon13GenericHeader13PixelsPerLineEi.exit.thread, %for.body
  %w.1 = phi i32 [ -1, %for.body ], [ %spec.select42, %_ZNK6cineon13GenericHeader13PixelsPerLineEi.exit.thread ]
  %indvars.iv.next = add nuw nsw i64 %indvars.iv, 1
  %exitcond.not = icmp eq i64 %indvars.iv.next, %wide.trip.count39
  br i1 %exitcond.not, label %for.end, label %for.body, !llvm.loop !17

for.end:                                          ; preds = %for.inc, %for.inc.us, %entry
  %w.0.lcssa = phi i32 [ 0, %entry ], [ %w.1.us, %for.inc.us ], [ %w.1, %for.inc ]
  ret i32 %w.0.lcssa
}